target datalayout = "e-m:e-p270:32:32-p271:32:32-p272:64:64-i64:64-i128:128-f80:128-n8:16:32:64-S128"
target triple = "x86_64-pc-linux-gnu"

%struct.Vec_Int_t_ = type { i32, i32, ptr }
%struct.Vec_Ptr_t_ = type { i32, i32, ptr }
%struct.Psr_Ntk_t_ = type { i32, i8, ptr, %struct.Vec_Int_t_, %struct.Vec_Int_t_, %struct.Vec_Int_t_, %struct.Vec_Int_t_, %struct.Vec_Int_t_, %struct.Vec_Int_t_, %struct.Vec_Int_t_, %struct.Vec_Int_t_, %struct.Vec_Int_t_, %struct.Vec_Int_t_, %struct.Vec_Int_t_, %struct.Vec_Int_t_, %struct.Vec_Int_t_ }

; Function Attrs: inlinehint nounwind uwtable
define internal void @Vec_IntErase(ptr noundef %0) #1 {
  %2 = alloca ptr, align 8
  store ptr %0, ptr %2, align 8, !tbaa !8
  %3 = load ptr, ptr %2, align 8, !tbaa !8
  %4 = getelementptr inbounds nuw %struct.Vec_Int_t_, ptr %3, i32 0, i32 2
  %5 = load ptr, ptr %4, align 8, !tbaa !27
  %6 = icmp ne ptr %5, null
  br i1 %6, label %7, label %13

7:                                                ; preds = %1
  %8 = load ptr, ptr %2, align 8, !tbaa !8
  %9 = getelementptr inbounds nuw %struct.Vec_Int_t_, ptr %8, i32 0, i32 2
  %10 = load ptr, ptr %9, align 8, !tbaa !27
  call void @free(ptr noundef %10) #11
  %11 = load ptr, ptr %2, align 8, !tbaa !8
  %12 = getelementptr inbounds nuw %struct.Vec_Int_t_, ptr %11, i32 0, i32 2
  store ptr null, ptr %12, align 8, !tbaa !27
  br label %14

13:                                               ; preds = %1
  br label %14

14:                                               ; preds = %13, %7
  %15 = load ptr, ptr %2, align 8, !tbaa !8
  %16 = getelementptr inbounds nuw %struct.Vec_Int_t_, ptr %15, i32 0, i32 1
  store i32 0, ptr %16, align 4, !tbaa !22
  %17 = load ptr, ptr %2, align 8, !tbaa !8
  %18 = getelementptr inbounds nuw %struct.Vec_Int_t_, ptr %17, i32 0, i32 0
  store i32 0, ptr %18, align 8, !tbaa !26
  ret void
}

; Function Attrs: inlinehint nounwind uwtable
define internal void @Vec_PtrFree(ptr noundef %0) #1 {
  %2 = alloca ptr, align 8
  store ptr %0, ptr %2, align 8, !tbaa !33
  %3 = load ptr, ptr %2, align 8, !tbaa !33
  %4 = getelementptr inbounds nuw %struct.Vec_Ptr_t_, ptr %3, i32 0, i32 2
  %5 = load ptr, ptr %4, align 8, !tbaa !72
  %6 = icmp ne ptr %5, null
  br i1 %6, label %7, label %13

7:                                                ; preds = %1
  %8 = load ptr, ptr %2, align 8, !tbaa !33
  %9 = getelementptr inbounds nuw %struct.Vec_Ptr_t_, ptr %8, i32 0, i32 2
  %10 = load ptr, ptr %9, align 8, !tbaa !72
  call void @free(ptr noundef %10) #11
  %11 = load ptr, ptr %2, align 8, !tbaa !33
  %12 = getelementptr inbounds nuw %struct.Vec_Ptr_t_, ptr %11, i32 0, i32 2
  store ptr null, ptr %12, align 8, !tbaa !72
  br label %14

13:                                               ; preds = %1
  br label %14

14:                                               ; preds = %13, %7
  %15 = load ptr, ptr %2, align 8, !tbaa !33
  %16 = icmp ne ptr %15, null
  br i1 %16, label %17, label %19

17:                                               ; preds = %14
  %18 = load ptr, ptr %2, align 8, !tbaa !33
  call void @free(ptr noundef %18) #11
  store ptr null, ptr %2, align 8, !tbaa !33
  br label %20

19:                                               ; preds = %14
  br label %20

20:                                               ; preds = %19, %17
  ret void
}

; Function Attrs: inlinehint nounwind uwtable
define internal void @Psr_NtkFree(ptr noundef %0) #1 {
  %2 = alloca ptr, align 8
  store ptr %0, ptr %2, align 8, !tbaa !46
  %3 = load ptr, ptr %2, align 8, !tbaa !46
  %4 = getelementptr inbounds nuw %struct.Psr_Ntk_t_, ptr %3, i32 0, i32 2
  %5 = load ptr, ptr %4, align 8, !tbaa !44
  %6 = icmp ne ptr %5, null
  br i1 %6, label %7, label %11

7:                                                ; preds = %1
  %8 = load ptr, ptr %2, align 8, !tbaa !46
  %9 = getelementptr inbounds nuw %struct.Psr_Ntk_t_, ptr %8, i32 0, i32 2
  %10 = load ptr, ptr %9, align 8, !tbaa !44
  call void @Abc_NamDeref(ptr noundef %10)
  br label %11

11:                                               ; preds = %7, %1
  %12 = load ptr, ptr %2, align 8, !tbaa !46
  %13 = getelementptr inbounds nuw %struct.Psr_Ntk_t_, ptr %12, i32 0, i32 3
  call void @Vec_IntErase(ptr noundef %13)
  %14 = load ptr, ptr %2, align 8, !tbaa !46
  %15 = getelementptr inbounds nuw %struct.Psr_Ntk_t_, ptr %14, i32 0, i32 4
  call void @Vec_IntErase(ptr noundef %15)
  %16 = load ptr, ptr %2, align 8, !tbaa !46
  %17 = getelementptr inbounds nuw %struct.Psr_Ntk_t_, ptr %16, i32 0, i32 5
  call void @Vec_IntErase(ptr noundef %17)
  %18 = load ptr, ptr %2, align 8, !tbaa !46
  %19 = getelementptr inbounds nuw %struct.Psr_Ntk_t_, ptr %18, i32 0, i32 6
  call void @Vec_IntErase(ptr noundef %19)
  %20 = load ptr, ptr %2, align 8, !tbaa !46
  %21 = getelementptr inbounds nuw %struct.Psr_Ntk_t_, ptr %20, i32 0, i32 7
  call void @Vec_IntErase(ptr noundef %21)
  %22 = load ptr, ptr %2, align 8, !tbaa !46
  %23 = getelementptr inbounds nuw %struct.Psr_Ntk_t_, ptr %22, i32 0, i32 8
  call void @Vec_IntErase(ptr noundef %23)
  %24 = load ptr, ptr %2, align 8, !tbaa !46
  %25 = getelementptr inbounds nuw %struct.Psr_Ntk_t_, ptr %24, i32 0, i32 9
  call void @Vec_IntErase(ptr noundef %25)
  %26 = load ptr, ptr %2, align 8, !tbaa !46
  %27 = getelementptr inbounds nuw %struct.Psr_Ntk_t_, ptr %26, i32 0, i32 10
  call void @Vec_IntErase(ptr noundef %27)
  %28 = load ptr, ptr %2, align 8, !tbaa !46
  %29 = getelementptr inbounds nuw %struct.Psr_Ntk_t_, ptr %28, i32 0, i32 11
  call void @Vec_IntErase(ptr noundef %29)
  %30 = load ptr, ptr %2, align 8, !tbaa !46
  %31 = getelementptr inbounds nuw %struct.Psr_Ntk_t_, ptr %30, i32 0, i32 12
  call void @Vec_IntErase(ptr noundef %31)
  %32 = load ptr, ptr %2, align 8, !tbaa !46
  %33 = getelementptr inbounds nuw %struct.Psr_Ntk_t_, ptr %32, i32 0, i32 13
  call void @Vec_IntErase(ptr noundef %33)
  %34 = load ptr, ptr %2, align 8, !tbaa !46
  %35 = getelementptr inbounds nuw %struct.Psr_Ntk_t_, ptr %34, i32 0, i32 14
  call void @Vec_IntErase(ptr noundef %35)
  %36 = load ptr, ptr %2, align 8, !tbaa !46
  %37 = getelementptr inbounds nuw %struct.Psr_Ntk_t_, ptr %36, i32 0, i32 15
  call void @Vec_IntErase(ptr noundef %37)
  %38 = load ptr, ptr %2, align 8, !tbaa !46
  %39 = icmp ne ptr %38, null
  br i1 %39, label %40, label %42

40:                                               ; preds = %11
  %41 = load ptr, ptr %2, align 8, !tbaa !46
  call void @free(ptr noundef %41) #11
  store ptr null, ptr %2, align 8, !tbaa !46
  br label %43

42:                                               ; preds = %11
  br label %43

43:                                               ; preds = %42, %40
  ret void
}

; Function Attrs: inlinehint nounwind uwtable
define internal ptr @Vec_PtrEntry(ptr noundef %0, i32 noundef %1) #1 {
  %3 = alloca ptr, align 8
  %4 = alloca i32, align 4
  store ptr %0, ptr %3, align 8, !tbaa !33
  store i32 %1, ptr %4, align 4, !tbaa !11
  %5 = load ptr, ptr %3, align 8, !tbaa !33
  %6 = getelementptr inbounds nuw %struct.Vec_Ptr_t_, ptr %5, i32 0, i32 2
  %7 = load ptr, ptr %6, align 8, !tbaa !72
  %8 = load i32, ptr %4, align 4, !tbaa !11
  %9 = sext i32 %8 to i64
  %10 = getelementptr inbounds ptr, ptr %7, i64 %9
  %11 = load ptr, ptr %10, align 8, !tbaa !78
  ret ptr %11
}

; Function Attrs: inlinehint nounwind uwtable
define internal i32 @Vec_PtrSize(ptr noundef %0) #1 {
  %2 = alloca ptr, align 8
  store ptr %0, ptr %2, align 8, !tbaa !33
  %3 = load ptr, ptr %2, align 8, !tbaa !33
  %4 = getelementptr inbounds nuw %struct.Vec_Ptr_t_, ptr %3, i32 0, i32 1
  %5 = load i32, ptr %4, align 4, !tbaa !42
  ret i32 %5
}

; Function Attrs: inlinehint nounwind uwtable
define internal void @Psr_ManVecFree(ptr noundef %0) #1 {
  %2 = alloca ptr, align 8
  %3 = alloca ptr, align 8
  %4 = alloca i32, align 4
  store ptr %0, ptr %2, align 8, !tbaa !33
  call void @llvm.lifetime.start.p0(i64 8, ptr %3) #11
  call void @llvm.lifetime.start.p0(i64 4, ptr %4) #11
  store i32 0, ptr %4, align 4, !tbaa !11
  br label %5

5:                                                ; preds = %18, %1
  %6 = load i32, ptr %4, align 4, !tbaa !11
  %7 = load ptr, ptr %2, align 8, !tbaa !33
  %8 = call i32 @Vec_PtrSize(ptr noundef %7)
  %9 = icmp slt i32 %6, %8
  br i1 %9, label %10, label %14

10:                                               ; preds = %5
  %11 = load ptr, ptr %2, align 8, !tbaa !33
  %12 = load i32, ptr %4, align 4, !tbaa !11
  %13 = call ptr @Vec_PtrEntry(ptr noundef %11, i32 noundef %12)
  store ptr %13, ptr %3, align 8, !tbaa !46
  br label %14

14:                                               ; preds = %10, %5
  %15 = phi i1 [ false, %5 ], [ true, %10 ]
  br i1 %15, label %16, label %21

16:                                               ; preds = %14
  %17 = load ptr, ptr %3, align 8, !tbaa !46
  call void @Psr_NtkFree(ptr noundef %17)
  br label %18

18:                                               ; preds = %16
  %19 = load i32, ptr %4, align 4, !tbaa !11
  %20 = add nsw i32 %19, 1
  store i32 %20, ptr %4, align 4, !tbaa !11
  br label %5, !llvm.loop !48

21:                                               ; preds = %14
  %22 = load ptr, ptr %2, align 8, !tbaa !33
  call void @Vec_PtrFree(ptr noundef %22)
  call void @llvm.lifetime.end.p0(i64 4, ptr %4) #11
  call void @llvm.lifetime.end.p0(i64 8, ptr %3) #11
  ret void
}